target datalayout = "e-m:e-p270:32:32-p271:32:32-p272:64:64-i64:64-i128:128-f80:128-n8:16:32:64-S128"
target triple = "x86_64-pc-linux-gnu"

%struct.SyncRepConfigData = type { i32, i32, i8, i32, [0 x i8] }

@.str.9 = private unnamed_addr constant [3 x i8] c"%s\00", align 1
@GUC_check_errdetail_string = external global ptr, align 8
@.str.10 = private unnamed_addr constant [20 x i8] c"\22%s\22 parser failed.\00", align 1
@.str.11 = private unnamed_addr constant [26 x i8] c"synchronous_standby_names\00", align 1
@.str.12 = private unnamed_addr constant [62 x i8] c"number of synchronous standbys (%d) must be greater than zero\00", align 1
@GUC_check_errmsg_string = external global ptr, align 8

; Function Attrs: nounwind uwtable
define dso_local zeroext i1 @check_synchronous_standby_names(ptr noundef %0, ptr noundef %1, i32 noundef %2) #0 {
  %4 = alloca i1, align 1
  %5 = alloca ptr, align 8
  %6 = alloca ptr, align 8
  %7 = alloca i32, align 4
  %8 = alloca ptr, align 8
  %9 = alloca i32, align 4
  %10 = alloca ptr, align 8
  %11 = alloca ptr, align 8
  %12 = alloca ptr, align 8
  %13 = alloca i32, align 4
  store ptr %0, ptr %5, align 8
  store ptr %1, ptr %6, align 8
  store i32 %2, ptr %7, align 4
  %14 = load ptr, ptr %5, align 8
  %15 = load ptr, ptr %14, align 8
  %16 = icmp ne ptr %15, null
  br i1 %16, label %17, label %81

17:                                               ; preds = %3
  %18 = load ptr, ptr %5, align 8
  %19 = load ptr, ptr %18, align 8
  %20 = getelementptr inbounds i8, ptr %19, i64 0
  %21 = load i8, ptr %20, align 1
  %22 = sext i8 %21 to i32
  %23 = icmp ne i32 %22, 0
  br i1 %23, label %24, label %81

24:                                               ; preds = %17
  call void @llvm.lifetime.start.p0(i64 8, ptr %8) #8
  call void @llvm.lifetime.start.p0(i64 4, ptr %9) #8
  call void @llvm.lifetime.start.p0(i64 8, ptr %10) #8
  call void @llvm.lifetime.start.p0(i64 8, ptr %11) #8
  store ptr null, ptr %11, align 8
  call void @llvm.lifetime.start.p0(i64 8, ptr %12) #8
  store ptr null, ptr %12, align 8
  %25 = load ptr, ptr %5, align 8
  %26 = load ptr, ptr %25, align 8
  call void @syncrep_scanner_init(ptr noundef %26, ptr noundef %8)
  %27 = load ptr, ptr %8, align 8
  %28 = call i32 @syncrep_yyparse(ptr noundef %11, ptr noundef %12, ptr noundef %27)
  store i32 %28, ptr %9, align 4
  %29 = load ptr, ptr %8, align 8
  call void @syncrep_scanner_finish(ptr noundef %29)
  %30 = load i32, ptr %9, align 4
  %31 = icmp ne i32 %30, 0
  br i1 %31, label %35, label %32

32:                                               ; preds = %24
  %33 = load ptr, ptr %11, align 8
  %34 = icmp eq ptr %33, null
  br i1 %34, label %35, label %48

35:                                               ; preds = %32, %24
  call void @GUC_check_errcode(i32 noundef 16801924)
  %36 = load ptr, ptr %12, align 8
  %37 = icmp ne ptr %36, null
  br i1 %37, label %38, label %43

38:                                               ; preds = %35
  %39 = call ptr @__errno_location() #11
  %40 = load i32, ptr %39, align 4
  call void @pre_format_elog_string(i32 noundef %40, ptr noundef null)
  %41 = load ptr, ptr %12, align 8
  %42 = call ptr (ptr, ...) @format_elog_string(ptr noundef @.str.9, ptr noundef %41)
  store ptr %42, ptr @GUC_check_errdetail_string, align 8
  br label %47

43:                                               ; preds = %35
  %44 = call ptr @__errno_location() #11
  %45 = load i32, ptr %44, align 4
  call void @pre_format_elog_string(i32 noundef %45, ptr noundef null)
  %46 = call ptr (ptr, ...) @format_elog_string(ptr noundef @.str.10, ptr noundef @.str.11)
  store ptr %46, ptr @GUC_check_errdetail_string, align 8
  br label %47

47:                                               ; preds = %43, %38
  store i1 false, ptr %4, align 1
  store i32 1, ptr %13, align 4
  br label %78

48:                                               ; preds = %32
  %49 = load ptr, ptr %11, align 8
  %50 = getelementptr inbounds nuw %struct.SyncRepConfigData, ptr %49, i32 0, i32 1
  %51 = load i32, ptr %50, align 4
  %52 = icmp sle i32 %51, 0
  br i1 %52, label %53, label %60

53:                                               ; preds = %48
  %54 = call ptr @__errno_location() #11
  %55 = load i32, ptr %54, align 4
  call void @pre_format_elog_string(i32 noundef %55, ptr noundef null)
  %56 = load ptr, ptr %11, align 8
  %57 = getelementptr inbounds nuw %struct.SyncRepConfigData, ptr %56, i32 0, i32 1
  %58 = load i32, ptr %57, align 4
  %59 = call ptr (ptr, ...) @format_elog_string(ptr noundef @.str.12, i32 noundef %58)
  store ptr %59, ptr @GUC_check_errmsg_string, align 8
  store i1 false, ptr %4, align 1
  store i32 1, ptr %13, align 4
  br label %78

60:                                               ; preds = %48
  %61 = load ptr, ptr %11, align 8
  %62 = getelementptr inbounds nuw %struct.SyncRepConfigData, ptr %61, i32 0, i32 0
  %63 = load i32, ptr %62, align 4
  %64 = sext i32 %63 to i64
  %65 = call ptr @guc_malloc(i32 noundef 15, i64 noundef %64)
  store ptr %65, ptr %10, align 8
  %66 = load ptr, ptr %10, align 8
  %67 = icmp eq ptr %66, null
  br i1 %67, label %68, label %69

68:                                               ; preds = %60
  store i1 false, ptr %4, align 1
  store i32 1, ptr %13, align 4
  br label %78

69:                                               ; preds = %60
  %70 = load ptr, ptr %10, align 8
  %71 = load ptr, ptr %11, align 8
  %72 = load ptr, ptr %11, align 8
  %73 = getelementptr inbounds nuw %struct.SyncRepConfigData, ptr %72, i32 0, i32 0
  %74 = load i32, ptr %73, align 4
  %75 = sext i32 %74 to i64
  call void @llvm.memcpy.p0.p0.i64(ptr align 4 %70, ptr align 4 %71, i64 %75, i1 false)
  %76 = load ptr, ptr %10, align 8
  %77 = load ptr, ptr %6, align 8
  store ptr %76, ptr %77, align 8
  store i32 0, ptr %13, align 4
  br label %78

78:                                               ; preds = %69, %68, %53, %47
  call void @llvm.lifetime.end.p0(i64 8, ptr %12) #8
  call void @llvm.lifetime.end.p0(i64 8, ptr %11) #8
  call void @llvm.lifetime.end.p0(i64 8, ptr %10) #8
  call void @llvm.lifetime.end.p0(i64 4, ptr %9) #8
  call void @llvm.lifetime.end.p0(i64 8, ptr %8) #8
  %79 = load i32, ptr %13, align 4
  switch i32 %79, label %86 [
    i32 0, label %80
    i32 1, label %84
  ]

80:                                               ; preds = %78
  br label %83

81:                                               ; preds = %17, %3
  %82 = load ptr, ptr %6, align 8
  store ptr null, ptr %82, align 8
  br label %83

83:                                               ; preds = %81, %80
  store i1 true, ptr %4, align 1
  br label %84

84:                                               ; preds = %83, %78
  %85 = load i1, ptr %4, align 1
  ret i1 %85

86:                                               ; preds = %78
  unreachable
}