; Function Attrs: nounwind uwtable
define dso_local noundef zeroext i1 @check_synchronous_standby_names(ptr noundef readonly captures(none) %0, ptr noundef writeonly captures(none) %1, i32 noundef %2) local_unnamed_addr #0 {
  %4 = alloca ptr, align 8
  %5 = alloca ptr, align 8
  %6 = alloca ptr, align 8
  %7 = load ptr, ptr %0, align 8
  %.not = icmp eq ptr %7, null
  br i1 %.not, label %47, label %8

8:                                                ; preds = %3
  %9 = load i8, ptr %7, align 1
  %.not15 = icmp eq i8 %9, 0
  br i1 %.not15, label %47, label %10

10:                                               ; preds = %8
  call void @llvm.lifetime.start.p0(i64 8, ptr nonnull %4) #10
  call void @llvm.lifetime.start.p0(i64 8, ptr nonnull %5) #10
  store ptr null, ptr %5, align 8
  call void @llvm.lifetime.start.p0(i64 8, ptr nonnull %6) #10
  store ptr null, ptr %6, align 8
  call void @syncrep_scanner_init(ptr noundef nonnull %7, ptr noundef nonnull %4) #10
  %11 = load ptr, ptr %4, align 8
  %12 = call i32 @syncrep_yyparse(ptr noundef nonnull %5, ptr noundef nonnull %6, ptr noundef %11) #10
  %13 = load ptr, ptr %4, align 8
  call void @syncrep_scanner_finish(ptr noundef %13) #10
  %14 = icmp ne i32 %12, 0
  %15 = load ptr, ptr %5, align 8
  %16 = icmp eq ptr %15, null
  %or.cond = select i1 %14, i1 true, i1 %16
  br i1 %or.cond, label %17, label %27

17:                                               ; preds = %10
  call void @GUC_check_errcode(i32 noundef 16801924) #10
  %18 = load ptr, ptr %6, align 8
  %.not16 = icmp eq ptr %18, null
  %19 = tail call ptr @__errno_location() #12
  %20 = load i32, ptr %19, align 4
  call void @pre_format_elog_string(i32 noundef %20, ptr noundef null) #10
  br i1 %.not16, label %24, label %21

21:                                               ; preds = %17
  %22 = load ptr, ptr %6, align 8
  %23 = call ptr (ptr, ...) @format_elog_string(ptr noundef nonnull @.str.9, ptr noundef %22) #10
  br label %26

24:                                               ; preds = %17
  %25 = call ptr (ptr, ...) @format_elog_string(ptr noundef nonnull @.str.10, ptr noundef nonnull @.str.11) #10
  br label %26

26:                                               ; preds = %24, %21
  %storemerge = phi ptr [ %25, %24 ], [ %23, %21 ]
  store ptr %storemerge, ptr @GUC_check_errdetail_string, align 8
  br label %.thread

27:                                               ; preds = %10
  %28 = getelementptr inbounds nuw i8, ptr %15, i64 4
  %29 = load i32, ptr %28, align 4
  %30 = icmp slt i32 %29, 1
  br i1 %30, label %31, label %38

31:                                               ; preds = %27
  %32 = tail call ptr @__errno_location() #12
  %33 = load i32, ptr %32, align 4
  call void @pre_format_elog_string(i32 noundef %33, ptr noundef null) #10
  %34 = load ptr, ptr %5, align 8
  %35 = getelementptr inbounds nuw i8, ptr %34, i64 4
  %36 = load i32, ptr %35, align 4
  %37 = call ptr (ptr, ...) @format_elog_string(ptr noundef nonnull @.str.12, i32 noundef %36) #10
  store ptr %37, ptr @GUC_check_errmsg_string, align 8
  br label %.thread

38:                                               ; preds = %27
  %39 = load i32, ptr %15, align 4
  %40 = sext i32 %39 to i64
  %41 = call ptr @guc_malloc(i32 noundef 15, i64 noundef %40) #10
  %42 = icmp eq ptr %41, null
  br i1 %42, label %.thread, label %43

.thread:                                          ; preds = %26, %31, %38
  call void @llvm.lifetime.end.p0(i64 8, ptr nonnull %6) #10
  call void @llvm.lifetime.end.p0(i64 8, ptr nonnull %5) #10
  call void @llvm.lifetime.end.p0(i64 8, ptr nonnull %4) #10
  br label %48

43:                                               ; preds = %38
  %44 = load ptr, ptr %5, align 8
  %45 = load i32, ptr %44, align 4
  %46 = sext i32 %45 to i64
  call void @llvm.memcpy.p0.p0.i64(ptr nonnull align 4 %41, ptr nonnull align 4 %44, i64 %46, i1 false)
  store ptr %41, ptr %1, align 8
  call void @llvm.lifetime.end.p0(i64 8, ptr nonnull %6) #10
  call void @llvm.lifetime.end.p0(i64 8, ptr nonnull %5) #10
  call void @llvm.lifetime.end.p0(i64 8, ptr nonnull %4) #10
  br label %48

47:                                               ; preds = %8, %3
  store ptr null, ptr %1, align 8
  br label %48

48:                                               ; preds = %47, %43, %.thread
  %.1 = phi i1 [ false, %.thread ], [ true, %43 ], [ true, %47 ]
  ret i1 %.1
}